; Function Attrs: nounwind uwtable
define noalias noundef ptr @Wlc_NtkCollectObjs(ptr noundef %0, i32 noundef %1, ptr noundef writeonly %2) local_unnamed_addr #0 {
  %4 = tail call noalias dereferenceable_or_null(16) ptr @malloc(i64 noundef 16) #17
  %5 = getelementptr inbounds nuw i8, ptr %4, i64 4
  store i32 0, ptr %5, align 4, !tbaa !24
  store i32 100, ptr %4, align 8, !tbaa !25
  %6 = tail call noalias dereferenceable_or_null(400) ptr @malloc(i64 noundef 400) #17
  %7 = getelementptr inbounds nuw i8, ptr %4, i64 8
  store ptr %6, ptr %7, align 8, !tbaa !26
  tail call void @Wlc_NtkCleanMarks(ptr noundef %0) #18
  %8 = getelementptr i8, ptr %0, i64 68
  %.val20 = load i32, ptr %8, align 4, !tbaa !24
  %9 = icmp sgt i32 %.val20, 0
  br i1 %9, label %.lr.ph, label %.critedge

.lr.ph:                                           ; preds = %3
  %10 = getelementptr i8, ptr %0, i64 640
  %11 = getelementptr i8, ptr %0, i64 72
  br label %12

12:                                               ; preds = %.lr.ph, %23
  %.val24 = phi i32 [ %.val20, %.lr.ph ], [ %.val, %23 ]
  %indvars.iv = phi i64 [ 0, %.lr.ph ], [ %indvars.iv.next, %23 ]
  %.022 = phi i32 [ 0, %.lr.ph ], [ %.1, %23 ]
  %13 = trunc nuw nsw i64 %indvars.iv to i32
  %14 = and i32 %13, 1
  %15 = icmp eq i32 %14, %1
  br i1 %15, label %16, label %23

16:                                               ; preds = %12
  %.val19 = load ptr, ptr %10, align 8, !tbaa !10
  %.val18 = load ptr, ptr %11, align 8, !tbaa !26
  %17 = getelementptr inbounds nuw i32, ptr %.val18, i64 %indvars.iv
  %18 = load i32, ptr %17, align 4, !tbaa !9
  %19 = sext i32 %18 to i64
  %20 = getelementptr inbounds %struct.Wlc_Obj_t_, ptr %.val19, i64 %19
  %21 = tail call i32 @Wlc_NtkCollectObjs_rec(ptr noundef nonnull %0, ptr noundef %20, ptr noundef nonnull %4)
  %22 = add nsw i32 %21, %.022
  %.val.pre = load i32, ptr %8, align 4, !tbaa !24
  br label %23

23:                                               ; preds = %12, %16
  %.val = phi i32 [ %.val.pre, %16 ], [ %.val24, %12 ]
  %.1 = phi i32 [ %22, %16 ], [ %.022, %12 ]
  %indvars.iv.next = add nuw nsw i64 %indvars.iv, 1
  %24 = sext i32 %.val to i64
  %25 = icmp slt i64 %indvars.iv.next, %24
  br i1 %25, label %12, label %.critedge, !llvm.loop !27

.critedge:                                        ; preds = %23, %3
  %.0.lcssa = phi i32 [ 0, %3 ], [ %.1, %23 ]
  tail call void @Wlc_NtkCleanMarks(ptr noundef nonnull %0) #18
  %.not = icmp eq ptr %2, null
  br i1 %.not, label %27, label %26

26:                                               ; preds = %.critedge
  store i32 %.0.lcssa, ptr %2, align 4, !tbaa !9
  br label %27

27:                                               ; preds = %26, %.critedge
  ret ptr %4
}